target datalayout = "e-m:e-p270:32:32-p271:32:32-p272:64:64-i64:64-i128:128-f80:128-n8:16:32:64-S128"
target triple = "x86_64-pc-linux-gnu"

%struct._lv_global_t = type { i8, i8, %struct.lv_ll_t, ptr, ptr, %struct.lv_ll_t, i8, i32, i32, ptr, %struct.lv_ll_t, ptr, %struct.lv_ll_t, ptr, ptr, i32, ptr, i8, i32, i32, ptr, i32, %struct.lv_timer_state_t, %struct.lv_anim_state_t, %struct.lv_tick_state_t, %struct._lv_draw_buf_handlers_t, %struct._lv_draw_buf_handlers_t, %struct._lv_draw_buf_handlers_t, %struct.lv_ll_t, ptr, ptr, %struct.lv_draw_global_info_t, [4 x %struct.lv_draw_sw_mask_radius_circle_dsc_t], ptr, ptr, ptr, %struct.lv_tlsf_state_t, %struct.lv_ll_t, ptr, ptr, %struct.lv_style_t, i64, ptr, i32, ptr }
%struct.lv_timer_state_t = type { %struct.lv_ll_t, i8, i8, i8, i8, i32, i8, i32, i32, i32, i32, ptr, ptr }
%struct.lv_anim_state_t = type { i8, i8, ptr, %struct.lv_ll_t }
%struct.lv_tick_state_t = type { i32, i8, ptr, ptr }
%struct._lv_draw_buf_handlers_t = type { ptr, ptr, ptr, ptr, ptr, ptr }
%struct.lv_draw_global_info_t = type { ptr, i32, i32, i32, i32, i8 }
%struct.lv_draw_sw_mask_radius_circle_dsc_t = type { ptr, ptr, ptr, ptr, i32, i32, i32 }
%struct.lv_tlsf_state_t = type { ptr, i64, i64, %struct.lv_ll_t }
%struct.lv_ll_t = type { i32, ptr, ptr }
%struct.lv_style_t = type { ptr, i32, i8 }
%struct._lv_image_decoder_dsc_t = type { ptr, %struct._lv_image_decoder_args_t, ptr, i32, %struct.lv_fs_file_t, %struct.lv_image_header_t, ptr, ptr, i32, i32, ptr, ptr, ptr, ptr }
%struct._lv_image_decoder_args_t = type { i8, i8, i8, i8, i8 }
%struct.lv_fs_file_t = type { ptr, ptr, ptr }
%struct.lv_image_header_t = type <{ i64, i32 }>
%struct._lv_image_decoder_t = type { ptr, ptr, ptr, ptr, ptr, ptr, ptr }
%struct._lv_image_cache_data_t = type { %struct._lv_cache_slot_size_t, ptr, i32, ptr, ptr, ptr }
%struct._lv_cache_slot_size_t = type { i64 }

@lv_global = external global %struct._lv_global_t, align 8

; Function Attrs: nounwind uwtable
define internal i32 @try_cache(ptr noundef %0) #0 {
  %2 = alloca i32, align 4
  %3 = alloca ptr, align 8
  %4 = alloca ptr, align 8
  %5 = alloca %struct._lv_image_cache_data_t, align 8
  %6 = alloca ptr, align 8
  %7 = alloca ptr, align 8
  %8 = alloca i32, align 4
  store ptr %0, ptr %3, align 8, !tbaa !46
  call void @llvm.lifetime.start.p0(i64 8, ptr %4) #5
  %9 = load ptr, ptr %3, align 8, !tbaa !46
  %10 = getelementptr inbounds nuw %struct._lv_image_decoder_dsc_t, ptr %9, i32 0, i32 11
  %11 = load ptr, ptr %10, align 8, !tbaa !69
  store ptr %11, ptr %4, align 8, !tbaa !79
  call void @llvm.lifetime.start.p0(i64 48, ptr %5) #5
  %12 = load ptr, ptr %3, align 8, !tbaa !46
  %13 = getelementptr inbounds nuw %struct._lv_image_decoder_dsc_t, ptr %12, i32 0, i32 3
  %14 = load i32, ptr %13, align 8, !tbaa !43
  %15 = getelementptr inbounds nuw %struct._lv_image_cache_data_t, ptr %5, i32 0, i32 2
  store i32 %14, ptr %15, align 8, !tbaa !80
  %16 = load ptr, ptr %3, align 8, !tbaa !46
  %17 = getelementptr inbounds nuw %struct._lv_image_decoder_dsc_t, ptr %16, i32 0, i32 2
  %18 = load ptr, ptr %17, align 8, !tbaa !33
  %19 = getelementptr inbounds nuw %struct._lv_image_cache_data_t, ptr %5, i32 0, i32 1
  store ptr %18, ptr %19, align 8, !tbaa !83
  call void @llvm.lifetime.start.p0(i64 8, ptr %6) #5
  %20 = load ptr, ptr %4, align 8, !tbaa !79
  %21 = call ptr @lv_cache_acquire(ptr noundef %20, ptr noundef %5, ptr noundef null)
  store ptr %21, ptr %6, align 8, !tbaa !56
  %22 = load ptr, ptr %6, align 8, !tbaa !56
  %23 = icmp ne ptr %22, null
  br i1 %23, label %24, label %40

24:                                               ; preds = %1
  call void @llvm.lifetime.start.p0(i64 8, ptr %7) #5
  %25 = load ptr, ptr %6, align 8, !tbaa !56
  %26 = call ptr @lv_cache_entry_get_data(ptr noundef %25)
  store ptr %26, ptr %7, align 8, !tbaa !84
  %27 = load ptr, ptr %7, align 8, !tbaa !84
  %28 = getelementptr inbounds nuw %struct._lv_image_cache_data_t, ptr %27, i32 0, i32 3
  %29 = load ptr, ptr %28, align 8, !tbaa !86
  %30 = load ptr, ptr %3, align 8, !tbaa !46
  %31 = getelementptr inbounds nuw %struct._lv_image_decoder_dsc_t, ptr %30, i32 0, i32 6
  store ptr %29, ptr %31, align 8, !tbaa !78
  %32 = load ptr, ptr %7, align 8, !tbaa !84
  %33 = getelementptr inbounds nuw %struct._lv_image_cache_data_t, ptr %32, i32 0, i32 4
  %34 = load ptr, ptr %33, align 8, !tbaa !87
  %35 = load ptr, ptr %3, align 8, !tbaa !46
  %36 = getelementptr inbounds nuw %struct._lv_image_decoder_dsc_t, ptr %35, i32 0, i32 0
  store ptr %34, ptr %36, align 8, !tbaa !71
  %37 = load ptr, ptr %6, align 8, !tbaa !56
  %38 = load ptr, ptr %3, align 8, !tbaa !46
  %39 = getelementptr inbounds nuw %struct._lv_image_decoder_dsc_t, ptr %38, i32 0, i32 12
  store ptr %37, ptr %39, align 8, !tbaa !88
  store i32 1, ptr %2, align 4
  store i32 1, ptr %8, align 4
  call void @llvm.lifetime.end.p0(i64 8, ptr %7) #5
  br label %41

40:                                               ; preds = %1
  store i32 0, ptr %2, align 4
  store i32 1, ptr %8, align 4
  br label %41

41:                                               ; preds = %40, %24
  call void @llvm.lifetime.end.p0(i64 8, ptr %6) #5
  call void @llvm.lifetime.end.p0(i64 48, ptr %5) #5
  call void @llvm.lifetime.end.p0(i64 8, ptr %4) #5
  %42 = load i32, ptr %2, align 4
  ret i32 %42
}

; Function Attrs: inlinehint nounwind uwtable
define internal void @lv_memzero(ptr noundef %0, i64 noundef %1) #3 {
  %3 = alloca ptr, align 8
  %4 = alloca i64, align 8
  store ptr %0, ptr %3, align 8, !tbaa !32
  store i64 %1, ptr %4, align 8, !tbaa !45
  %5 = load ptr, ptr %3, align 8, !tbaa !32
  %6 = load i64, ptr %4, align 8, !tbaa !45
  call void @lv_memset(ptr noundef %5, i8 noundef zeroext 0, i64 noundef %6)
  ret void
}

; Function Attrs: nounwind uwtable
define i32 @lv_image_decoder_open(ptr noundef %0, ptr noundef %1, ptr noundef %2) #0 {
  %4 = alloca i32, align 4
  %5 = alloca ptr, align 8
  %6 = alloca ptr, align 8
  %7 = alloca ptr, align 8
  %8 = alloca %struct._lv_image_decoder_args_t, align 1
  %9 = alloca i32, align 4
  store ptr %0, ptr %5, align 8, !tbaa !46
  store ptr %1, ptr %6, align 8, !tbaa !32
  store ptr %2, ptr %7, align 8, !tbaa !67
  %10 = load ptr, ptr %5, align 8, !tbaa !46
  call void @lv_memzero(ptr noundef %10, i64 noundef 128)
  %11 = load ptr, ptr %6, align 8, !tbaa !32
  %12 = icmp eq ptr %11, null
  br i1 %12, label %13, label %14

13:                                               ; preds = %3
  store i32 0, ptr %4, align 4
  br label %99

14:                                               ; preds = %3
  %15 = load ptr, ptr %6, align 8, !tbaa !32
  %16 = load ptr, ptr %5, align 8, !tbaa !46
  %17 = getelementptr inbounds nuw %struct._lv_image_decoder_dsc_t, ptr %16, i32 0, i32 2
  store ptr %15, ptr %17, align 8, !tbaa !33
  %18 = load ptr, ptr %6, align 8, !tbaa !32
  %19 = call i32 @lv_image_src_get_type(ptr noundef %18)
  %20 = load ptr, ptr %5, align 8, !tbaa !46
  %21 = getelementptr inbounds nuw %struct._lv_image_decoder_dsc_t, ptr %20, i32 0, i32 3
  store i32 %19, ptr %21, align 8, !tbaa !43
  %22 = call zeroext i1 @lv_image_cache_is_enabled()
  br i1 %22, label %23, label %41

23:                                               ; preds = %14
  %24 = load ptr, ptr getelementptr inbounds nuw (%struct._lv_global_t, ptr @lv_global, i32 0, i32 29), align 8, !tbaa !7
  %25 = load ptr, ptr %5, align 8, !tbaa !46
  %26 = getelementptr inbounds nuw %struct._lv_image_decoder_dsc_t, ptr %25, i32 0, i32 11
  store ptr %24, ptr %26, align 8, !tbaa !69
  %27 = load ptr, ptr %7, align 8, !tbaa !67
  %28 = icmp ne ptr %27, null
  br i1 %28, label %29, label %34

29:                                               ; preds = %23
  %30 = load ptr, ptr %7, align 8, !tbaa !67
  %31 = getelementptr inbounds nuw %struct._lv_image_decoder_args_t, ptr %30, i32 0, i32 2
  %32 = load i8, ptr %31, align 1, !tbaa !70, !range !51, !noundef !52
  %33 = trunc i8 %32 to i1
  br i1 %33, label %40, label %34

34:                                               ; preds = %29, %23
  %35 = load ptr, ptr %5, align 8, !tbaa !46
  %36 = call i32 @try_cache(ptr noundef %35)
  %37 = icmp eq i32 %36, 1
  br i1 %37, label %38, label %39

38:                                               ; preds = %34
  store i32 1, ptr %4, align 4
  br label %99

39:                                               ; preds = %34
  br label %40

40:                                               ; preds = %39, %29
  br label %41

41:                                               ; preds = %40, %14
  %42 = load ptr, ptr %5, align 8, !tbaa !46
  %43 = load ptr, ptr %5, align 8, !tbaa !46
  %44 = getelementptr inbounds nuw %struct._lv_image_decoder_dsc_t, ptr %43, i32 0, i32 5
  %45 = call ptr @image_decoder_get_info(ptr noundef %42, ptr noundef %44)
  %46 = load ptr, ptr %5, align 8, !tbaa !46
  %47 = getelementptr inbounds nuw %struct._lv_image_decoder_dsc_t, ptr %46, i32 0, i32 0
  store ptr %45, ptr %47, align 8, !tbaa !71
  %48 = load ptr, ptr %5, align 8, !tbaa !46
  %49 = getelementptr inbounds nuw %struct._lv_image_decoder_dsc_t, ptr %48, i32 0, i32 0
  %50 = load ptr, ptr %49, align 8, !tbaa !71
  %51 = icmp eq ptr %50, null
  br i1 %51, label %52, label %53

52:                                               ; preds = %41
  store i32 0, ptr %4, align 4
  br label %99

53:                                               ; preds = %41
  %54 = load ptr, ptr %5, align 8, !tbaa !46
  %55 = getelementptr inbounds nuw %struct._lv_image_decoder_dsc_t, ptr %54, i32 0, i32 1
  %56 = load ptr, ptr %7, align 8, !tbaa !67
  %57 = icmp ne ptr %56, null
  br i1 %57, label %58, label %60

58:                                               ; preds = %53
  %59 = load ptr, ptr %7, align 8, !tbaa !67
  call void @llvm.memcpy.p0.p0.i64(ptr align 8 %55, ptr align 1 %59, i64 5, i1 false), !tbaa.struct !72
  br label %66

60:                                               ; preds = %53
  %61 = getelementptr inbounds nuw %struct._lv_image_decoder_args_t, ptr %8, i32 0, i32 0
  store i8 0, ptr %61, align 1, !tbaa !73
  %62 = getelementptr inbounds nuw %struct._lv_image_decoder_args_t, ptr %8, i32 0, i32 1
  store i8 0, ptr %62, align 1, !tbaa !74
  %63 = getelementptr inbounds nuw %struct._lv_image_decoder_args_t, ptr %8, i32 0, i32 2
  store i8 0, ptr %63, align 1, !tbaa !70
  %64 = getelementptr inbounds nuw %struct._lv_image_decoder_args_t, ptr %8, i32 0, i32 3
  store i8 0, ptr %64, align 1, !tbaa !75
  %65 = getelementptr inbounds nuw %struct._lv_image_decoder_args_t, ptr %8, i32 0, i32 4
  store i8 0, ptr %65, align 1, !tbaa !76
  call void @llvm.memcpy.p0.p0.i64(ptr align 8 %55, ptr align 1 %8, i64 5, i1 false), !tbaa.struct !72
  br label %66

66:                                               ; preds = %60, %58
  call void @llvm.lifetime.start.p0(i64 4, ptr %9) #5
  %67 = load ptr, ptr %5, align 8, !tbaa !46
  %68 = getelementptr inbounds nuw %struct._lv_image_decoder_dsc_t, ptr %67, i32 0, i32 0
  %69 = load ptr, ptr %68, align 8, !tbaa !71
  %70 = getelementptr inbounds nuw %struct._lv_image_decoder_t, ptr %69, i32 0, i32 1
  %71 = load ptr, ptr %70, align 8, !tbaa !64
  %72 = load ptr, ptr %5, align 8, !tbaa !46
  %73 = getelementptr inbounds nuw %struct._lv_image_decoder_dsc_t, ptr %72, i32 0, i32 0
  %74 = load ptr, ptr %73, align 8, !tbaa !71
  %75 = load ptr, ptr %5, align 8, !tbaa !46
  %76 = call i32 %71(ptr noundef %74, ptr noundef %75)
  store i32 %76, ptr %9, align 4, !tbaa !3
  %77 = load ptr, ptr %5, align 8, !tbaa !46
  %78 = getelementptr inbounds nuw %struct._lv_image_decoder_dsc_t, ptr %77, i32 0, i32 1
  %79 = getelementptr inbounds nuw %struct._lv_image_decoder_args_t, ptr %78, i32 0, i32 4
  %80 = load i8, ptr %79, align 4, !tbaa !77, !range !51, !noundef !52
  %81 = trunc i8 %80 to i1
  br i1 %81, label %82, label %97

82:                                               ; preds = %66
  %83 = load i32, ptr %9, align 4, !tbaa !3
  %84 = icmp eq i32 %83, 1
  br i1 %84, label %85, label %97

85:                                               ; preds = %82
  %86 = load ptr, ptr %5, align 8, !tbaa !46
  %87 = getelementptr inbounds nuw %struct._lv_image_decoder_dsc_t, ptr %86, i32 0, i32 6
  %88 = load ptr, ptr %87, align 8, !tbaa !78
  %89 = icmp ne ptr %88, null
  br i1 %89, label %90, label %97

90:                                               ; preds = %85
  %91 = load ptr, ptr %5, align 8, !tbaa !46
  %92 = getelementptr inbounds nuw %struct._lv_image_decoder_dsc_t, ptr %91, i32 0, i32 6
  %93 = load ptr, ptr %92, align 8, !tbaa !78
  call void @lv_draw_buf_flush_cache(ptr noundef %93, ptr noundef null)
  br label %94

94:                                               ; preds = %90
  br label %95

95:                                               ; preds = %94
  br label %96

96:                                               ; preds = %95
  br label %97

97:                                               ; preds = %96, %85, %82, %66
  %98 = load i32, ptr %9, align 4, !tbaa !3
  store i32 %98, ptr %4, align 4
  call void @llvm.lifetime.end.p0(i64 4, ptr %9) #5
  br label %99

99:                                               ; preds = %97, %52, %38, %13
  %100 = load i32, ptr %4, align 4
  ret i32 %100
}