; Function Attrs: nounwind uwtable
define i32 @lv_image_decoder_open(ptr noundef %0, ptr noundef %1, ptr noundef readonly captures(address_is_null) %2) local_unnamed_addr #0 {
  %4 = alloca %struct._lv_image_cache_data_t, align 8
  tail call void @lv_memset(ptr noundef %0, i8 noundef zeroext 0, i64 noundef 128) #6
  %5 = icmp eq ptr %1, null
  br i1 %5, label %51, label %6

6:                                                ; preds = %3
  %7 = getelementptr inbounds nuw i8, ptr %0, i64 16
  store ptr %1, ptr %7, align 8, !tbaa !31
  %8 = tail call i32 @lv_image_src_get_type(ptr noundef nonnull %1) #6
  %9 = getelementptr inbounds nuw i8, ptr %0, i64 24
  store i32 %8, ptr %9, align 8, !tbaa !41
  %10 = tail call zeroext i1 @lv_image_cache_is_enabled() #6
  br i1 %10, label %11, label %31

11:                                               ; preds = %6
  %12 = load ptr, ptr getelementptr inbounds nuw (i8, ptr @lv_global, i64 520), align 8, !tbaa !3
  %13 = getelementptr inbounds nuw i8, ptr %0, i64 104
  store ptr %12, ptr %13, align 8, !tbaa !55
  %.not = icmp eq ptr %2, null
  br i1 %.not, label %18, label %14

14:                                               ; preds = %11
  %15 = getelementptr inbounds nuw i8, ptr %2, i64 2
  %16 = load i8, ptr %15, align 1, !tbaa !56, !range !57, !noundef !58
  %17 = trunc nuw i8 %16 to i1
  br i1 %17, label %31, label %18

18:                                               ; preds = %14, %11
  call void @llvm.lifetime.start.p0(i64 48, ptr nonnull %4) #6
  %19 = load i32, ptr %9, align 8, !tbaa !41
  %20 = getelementptr inbounds nuw i8, ptr %4, i64 16
  store i32 %19, ptr %20, align 8, !tbaa !59
  %21 = load ptr, ptr %7, align 8, !tbaa !31
  %22 = getelementptr inbounds nuw i8, ptr %4, i64 8
  store ptr %21, ptr %22, align 8, !tbaa !62
  %23 = call ptr @lv_cache_acquire(ptr noundef %12, ptr noundef nonnull %4, ptr noundef null) #6
  %.not.i = icmp eq ptr %23, null
  br i1 %.not.i, label %try_cache.exit.thread, label %try_cache.exit

try_cache.exit.thread:                            ; preds = %18
  call void @llvm.lifetime.end.p0(i64 48, ptr nonnull %4) #6
  br label %31

try_cache.exit:                                   ; preds = %18
  %24 = call ptr @lv_cache_entry_get_data(ptr noundef nonnull %23) #6
  %25 = getelementptr inbounds nuw i8, ptr %24, i64 24
  %26 = load ptr, ptr %25, align 8, !tbaa !63
  %27 = getelementptr inbounds nuw i8, ptr %0, i64 72
  store ptr %26, ptr %27, align 8, !tbaa !64
  %28 = getelementptr inbounds nuw i8, ptr %24, i64 32
  %29 = load ptr, ptr %28, align 8, !tbaa !65
  store ptr %29, ptr %0, align 8, !tbaa !66
  %30 = getelementptr inbounds nuw i8, ptr %0, i64 112
  store ptr %23, ptr %30, align 8, !tbaa !67
  call void @llvm.lifetime.end.p0(i64 48, ptr nonnull %4) #6
  br label %51

31:                                               ; preds = %try_cache.exit.thread, %14, %6
  %32 = getelementptr inbounds nuw i8, ptr %0, i64 56
  %33 = call fastcc ptr @image_decoder_get_info(ptr noundef nonnull %0, ptr noundef nonnull %32)
  store ptr %33, ptr %0, align 8, !tbaa !66
  %34 = icmp eq ptr %33, null
  br i1 %34, label %51, label %35

35:                                               ; preds = %31
  %36 = getelementptr inbounds nuw i8, ptr %0, i64 8
  %.not30 = icmp eq ptr %2, null
  br i1 %.not30, label %38, label %37

37:                                               ; preds = %35
  call void @llvm.memcpy.p0.p0.i64(ptr noundef nonnull align 8 dereferenceable(5) %36, ptr noundef nonnull align 1 dereferenceable(5) %2, i64 5, i1 false), !tbaa.struct !68
  br label %39

38:                                               ; preds = %35
  call void @llvm.memset.p0.i64(ptr noundef nonnull align 8 dereferenceable(5) %36, i8 0, i64 5, i1 false)
  br label %39

39:                                               ; preds = %38, %37
  %40 = getelementptr inbounds nuw i8, ptr %33, i64 8
  %41 = load ptr, ptr %40, align 8, !tbaa !52
  %42 = call i32 %41(ptr noundef nonnull %33, ptr noundef nonnull %0) #6
  %43 = getelementptr inbounds nuw i8, ptr %0, i64 12
  %44 = load i8, ptr %43, align 4, !tbaa !70, !range !57, !noundef !58
  %45 = trunc nuw i8 %44 to i1
  %46 = icmp eq i32 %42, 1
  %or.cond = select i1 %45, i1 %46, i1 false
  br i1 %or.cond, label %47, label %51

47:                                               ; preds = %39
  %48 = getelementptr inbounds nuw i8, ptr %0, i64 72
  %49 = load ptr, ptr %48, align 8, !tbaa !64
  %.not31 = icmp eq ptr %49, null
  br i1 %.not31, label %51, label %50

50:                                               ; preds = %47
  call void @lv_draw_buf_flush_cache(ptr noundef nonnull %49, ptr noundef null) #6
  br label %51

51:                                               ; preds = %try_cache.exit, %39, %47, %50, %31, %3
  %.0 = phi i32 [ 0, %3 ], [ 1, %try_cache.exit ], [ 0, %31 ], [ 1, %50 ], [ 1, %47 ], [ %42, %39 ]
  ret i32 %.0
}